target datalayout = "e-m:e-p270:32:32-p271:32:32-p272:64:64-i64:64-i128:128-f80:128-n8:16:32:64-S128"
target triple = "x86_64-pc-linux-gnu"

%struct._zend_executor_globals = type { %struct._zval_struct, %struct._zval_struct, [32 x ptr], ptr, ptr, %struct._zend_array, %struct._zend_array, ptr, i32, i8, %struct._zval_struct, i32, ptr, ptr, ptr, ptr, ptr, ptr, i64, ptr, ptr, i32, ptr, i32, i64, i32, i32, i32, i8, i8, %struct.zend_atomic_bool_s, %struct.zend_atomic_bool_s, ptr, i64, ptr, ptr, %struct._zend_array, %struct._zend_array, i32, i8, %struct._zval_struct, %struct._zval_struct, %struct._zend_stack, %struct._zend_stack, %struct._zend_stack, ptr, i32, i32, i64, ptr, ptr, ptr, %struct._zend_objects_store, %struct._zend_lazy_objects_store, ptr, ptr, ptr, [3 x %struct._zend_op], ptr, i8, i8, i64, i32, i32, ptr, [16 x %struct._HashTableIterator], ptr, %union._zend_function, %struct._zend_op, %struct._zend_array, i64, %struct.zend_get_gc_buffer, ptr, ptr, ptr, i64, i8, i32, ptr, ptr, i64, %struct._zend_call_stack, i64, i64, %struct._zend_strtod_state, [6 x ptr] }
%struct.zend_atomic_bool_s = type { i8 }
%struct._zval_struct = type { %union._zend_value, %union.anon, %union.anon.2 }
%union._zend_value = type { i64 }
%union.anon = type { i32 }
%union.anon.2 = type { i32 }
%struct._zend_stack = type { i32, i32, i32, ptr }
%struct._zend_objects_store = type { ptr, i32, i32, i32 }
%struct._zend_lazy_objects_store = type { %struct._zend_array }
%struct._HashTableIterator = type { ptr, i32, i32 }
%union._zend_function = type { %struct._zend_op_array }
%struct._zend_op_array = type { i8, [3 x i8], i32, ptr, ptr, ptr, i32, i32, ptr, ptr, ptr, ptr, i32, ptr, i32, i32, i32, ptr, ptr, ptr, ptr, ptr, i32, i32, ptr, ptr, ptr, i32, i32, i32, i32, ptr, ptr, [6 x ptr] }
%struct._zend_op = type { ptr, %union._znode_op, %union._znode_op, %union._znode_op, i32, i32, i8, i8, i8, i8 }
%union._znode_op = type { i32 }
%struct._zend_array = type { %struct._zend_refcounted_h, %union.anon.4, i32, %union.anon.6, i32, i32, i32, i32, i64, ptr }
%struct._zend_refcounted_h = type { i32, %union.anon.3 }
%union.anon.3 = type { i32 }
%union.anon.4 = type { i32 }
%union.anon.6 = type { ptr }
%struct.zend_get_gc_buffer = type { ptr, ptr, ptr }
%struct._zend_call_stack = type { ptr, i64 }
%struct._zend_strtod_state = type { [8 x ptr], ptr, ptr }
%struct._zend_execute_data = type { ptr, ptr, ptr, ptr, %struct._zval_struct, ptr, ptr, ptr, ptr }
%struct._spl_dllist_object = type { ptr, ptr, i32, i32, ptr, ptr, ptr, ptr, ptr, ptr, %struct._zend_object }
%struct._zend_object = type { %struct._zend_refcounted_h, i32, i32, ptr, ptr, ptr, [1 x %struct._zval_struct] }
%struct._spl_ptr_llist = type { ptr, ptr, i32 }
%struct._spl_ptr_llist_element = type { ptr, ptr, %struct._zval_struct }
%struct._zend_refcounted = type { %struct._zend_refcounted_h }
%struct.anon.0 = type { i8, i8, %union.anon.1 }
%union.anon.1 = type { i16 }

@executor_globals = external global %struct._zend_executor_globals, align 8
@spl_ce_UnexpectedValueException = external global ptr, align 8
@.str.11 = private unnamed_addr constant [2 x i8] c"h\00", align 1
@.str.12 = private unnamed_addr constant [43 x i8] c"Incomplete or ill-typed serialization data\00", align 1

; Function Attrs: alwaysinline nounwind uwtable
define internal i32 @zend_gc_addref(ptr noundef %0) #6 {
  %2 = alloca ptr, align 8
  store ptr %0, ptr %2, align 8, !tbaa !77
  br label %3

3:                                                ; preds = %1
  br label %4

4:                                                ; preds = %3
  %5 = load ptr, ptr %2, align 8, !tbaa !77
  %6 = getelementptr inbounds nuw %struct._zend_refcounted_h, ptr %5, i32 0, i32 0
  %7 = load i32, ptr %6, align 4, !tbaa !79
  %8 = add i32 %7, 1
  store i32 %8, ptr %6, align 4, !tbaa !79
  ret i32 %8
}

; Function Attrs: nounwind uwtable
define internal void @spl_ptr_llist_push(ptr noundef %0, ptr noundef %1) #0 {
  %3 = alloca ptr, align 8
  %4 = alloca ptr, align 8
  %5 = alloca ptr, align 8
  %6 = alloca ptr, align 8
  %7 = alloca ptr, align 8
  %8 = alloca ptr, align 8
  %9 = alloca i32, align 4
  store ptr %0, ptr %3, align 8, !tbaa !55
  store ptr %1, ptr %4, align 8, !tbaa !9
  call void @llvm.lifetime.start.p0(i64 8, ptr %5) #14
  %10 = call noalias ptr @_emalloc_32()
  store ptr %10, ptr %5, align 8, !tbaa !56
  %11 = load ptr, ptr %3, align 8, !tbaa !55
  %12 = getelementptr inbounds nuw %struct._spl_ptr_llist, ptr %11, i32 0, i32 1
  %13 = load ptr, ptr %12, align 8, !tbaa !57
  %14 = load ptr, ptr %5, align 8, !tbaa !56
  %15 = getelementptr inbounds nuw %struct._spl_ptr_llist_element, ptr %14, i32 0, i32 0
  store ptr %13, ptr %15, align 8, !tbaa !59
  %16 = load ptr, ptr %5, align 8, !tbaa !56
  %17 = getelementptr inbounds nuw %struct._spl_ptr_llist_element, ptr %16, i32 0, i32 1
  store ptr null, ptr %17, align 8, !tbaa !61
  br label %18

18:                                               ; preds = %2
  call void @llvm.lifetime.start.p0(i64 8, ptr %6) #14
  %19 = load ptr, ptr %5, align 8, !tbaa !56
  %20 = getelementptr inbounds nuw %struct._spl_ptr_llist_element, ptr %19, i32 0, i32 2
  store ptr %20, ptr %6, align 8, !tbaa !9
  call void @llvm.lifetime.start.p0(i64 8, ptr %7) #14
  %21 = load ptr, ptr %4, align 8, !tbaa !9
  store ptr %21, ptr %7, align 8, !tbaa !9
  call void @llvm.lifetime.start.p0(i64 8, ptr %8) #14
  %22 = load ptr, ptr %7, align 8, !tbaa !9
  %23 = getelementptr inbounds nuw %struct._zval_struct, ptr %22, i32 0, i32 0
  %24 = load ptr, ptr %23, align 8, !tbaa !11
  store ptr %24, ptr %8, align 8, !tbaa !62
  call void @llvm.lifetime.start.p0(i64 4, ptr %9) #14
  %25 = load ptr, ptr %7, align 8, !tbaa !9
  %26 = getelementptr inbounds nuw %struct._zval_struct, ptr %25, i32 0, i32 1
  %27 = load i32, ptr %26, align 8, !tbaa !11
  store i32 %27, ptr %9, align 4, !tbaa !64
  br label %28

28:                                               ; preds = %18
  %29 = load ptr, ptr %8, align 8, !tbaa !62
  %30 = load ptr, ptr %6, align 8, !tbaa !9
  %31 = getelementptr inbounds nuw %struct._zval_struct, ptr %30, i32 0, i32 0
  store ptr %29, ptr %31, align 8, !tbaa !11
  %32 = load i32, ptr %9, align 4, !tbaa !64
  %33 = load ptr, ptr %6, align 8, !tbaa !9
  %34 = getelementptr inbounds nuw %struct._zval_struct, ptr %33, i32 0, i32 1
  store i32 %32, ptr %34, align 8, !tbaa !11
  br label %35

35:                                               ; preds = %28
  br label %36

36:                                               ; preds = %35
  %37 = load i32, ptr %9, align 4, !tbaa !64
  %38 = and i32 %37, 65280
  %39 = icmp ne i32 %38, 0
  br i1 %39, label %40, label %44

40:                                               ; preds = %36
  %41 = load ptr, ptr %8, align 8, !tbaa !62
  %42 = getelementptr inbounds nuw %struct._zend_refcounted, ptr %41, i32 0, i32 0
  %43 = call i32 @zend_gc_addref(ptr noundef %42)
  br label %44

44:                                               ; preds = %40, %36
  call void @llvm.lifetime.end.p0(i64 4, ptr %9) #14
  call void @llvm.lifetime.end.p0(i64 8, ptr %8) #14
  call void @llvm.lifetime.end.p0(i64 8, ptr %7) #14
  call void @llvm.lifetime.end.p0(i64 8, ptr %6) #14
  br label %45

45:                                               ; preds = %44
  br label %46

46:                                               ; preds = %45
  %47 = load ptr, ptr %5, align 8, !tbaa !56
  %48 = getelementptr inbounds nuw %struct._spl_ptr_llist_element, ptr %47, i32 0, i32 2
  %49 = getelementptr inbounds nuw %struct._zval_struct, ptr %48, i32 0, i32 2
  store i32 1, ptr %49, align 4, !tbaa !11
  %50 = load ptr, ptr %3, align 8, !tbaa !55
  %51 = getelementptr inbounds nuw %struct._spl_ptr_llist, ptr %50, i32 0, i32 1
  %52 = load ptr, ptr %51, align 8, !tbaa !57
  %53 = icmp ne ptr %52, null
  br i1 %53, label %54, label %60

54:                                               ; preds = %46
  %55 = load ptr, ptr %5, align 8, !tbaa !56
  %56 = load ptr, ptr %3, align 8, !tbaa !55
  %57 = getelementptr inbounds nuw %struct._spl_ptr_llist, ptr %56, i32 0, i32 1
  %58 = load ptr, ptr %57, align 8, !tbaa !57
  %59 = getelementptr inbounds nuw %struct._spl_ptr_llist_element, ptr %58, i32 0, i32 1
  store ptr %55, ptr %59, align 8, !tbaa !61
  br label %64

60:                                               ; preds = %46
  %61 = load ptr, ptr %5, align 8, !tbaa !56
  %62 = load ptr, ptr %3, align 8, !tbaa !55
  %63 = getelementptr inbounds nuw %struct._spl_ptr_llist, ptr %62, i32 0, i32 0
  store ptr %61, ptr %63, align 8, !tbaa !65
  br label %64

64:                                               ; preds = %60, %54
  %65 = load ptr, ptr %5, align 8, !tbaa !56
  %66 = load ptr, ptr %3, align 8, !tbaa !55
  %67 = getelementptr inbounds nuw %struct._spl_ptr_llist, ptr %66, i32 0, i32 1
  store ptr %65, ptr %67, align 8, !tbaa !57
  %68 = load ptr, ptr %3, align 8, !tbaa !55
  %69 = getelementptr inbounds nuw %struct._spl_ptr_llist, ptr %68, i32 0, i32 2
  %70 = load i32, ptr %69, align 8, !tbaa !66
  %71 = add nsw i32 %70, 1
  store i32 %71, ptr %69, align 8, !tbaa !66
  call void @llvm.lifetime.end.p0(i64 8, ptr %5) #14
  ret void
}

; Function Attrs: alwaysinline nounwind uwtable
define internal zeroext i8 @zval_get_type(ptr noundef %0) #6 {
  %2 = alloca ptr, align 8
  store ptr %0, ptr %2, align 8, !tbaa !9
  %3 = load ptr, ptr %2, align 8, !tbaa !9
  %4 = getelementptr inbounds nuw %struct._zval_struct, ptr %3, i32 0, i32 1
  %5 = getelementptr inbounds nuw %struct.anon.0, ptr %4, i32 0, i32 0
  %6 = load i8, ptr %5, align 8, !tbaa !11
  ret i8 %6
}

; Function Attrs: inlinehint nounwind uwtable
define internal ptr @spl_dllist_from_obj(ptr noundef %0) #4 {
  %2 = alloca ptr, align 8
  store ptr %0, ptr %2, align 8, !tbaa !54
  %3 = load ptr, ptr %2, align 8, !tbaa !54
  %4 = getelementptr inbounds i8, ptr %3, i64 -72
  ret ptr %4
}

; Function Attrs: nounwind uwtable
define hidden void @zim_SplDoublyLinkedList___unserialize(ptr noundef %0, ptr noundef %1) #0 {
  %3 = alloca ptr, align 8
  %4 = alloca ptr, align 8
  %5 = alloca ptr, align 8
  %6 = alloca ptr, align 8
  %7 = alloca ptr, align 8
  %8 = alloca ptr, align 8
  %9 = alloca ptr, align 8
  %10 = alloca ptr, align 8
  %11 = alloca i32, align 4
  %12 = alloca ptr, align 8
  %13 = alloca i32, align 4
  %14 = alloca i64, align 8
  %15 = alloca ptr, align 8
  store ptr %0, ptr %3, align 8, !tbaa !4
  store ptr %1, ptr %4, align 8, !tbaa !9
  call void @llvm.lifetime.start.p0(i64 8, ptr %5) #14
  %16 = load ptr, ptr %3, align 8, !tbaa !4
  %17 = getelementptr inbounds nuw %struct._zend_execute_data, ptr %16, i32 0, i32 4
  %18 = getelementptr inbounds nuw %struct._zval_struct, ptr %17, i32 0, i32 0
  %19 = load ptr, ptr %18, align 8, !tbaa !11
  %20 = call ptr @spl_dllist_from_obj(ptr noundef %19)
  store ptr %20, ptr %5, align 8, !tbaa !45
  call void @llvm.lifetime.start.p0(i64 8, ptr %6) #14
  call void @llvm.lifetime.start.p0(i64 8, ptr %7) #14
  call void @llvm.lifetime.start.p0(i64 8, ptr %8) #14
  call void @llvm.lifetime.start.p0(i64 8, ptr %9) #14
  call void @llvm.lifetime.start.p0(i64 8, ptr %10) #14
  %21 = load ptr, ptr %3, align 8, !tbaa !4
  %22 = getelementptr inbounds nuw %struct._zend_execute_data, ptr %21, i32 0, i32 4
  %23 = getelementptr inbounds nuw %struct._zval_struct, ptr %22, i32 0, i32 2
  %24 = load i32, ptr %23, align 4, !tbaa !11
  %25 = call i32 (i32, ptr, ...) @zend_parse_parameters(i32 noundef %24, ptr noundef @.str.11, ptr noundef %6)
  %26 = icmp eq i32 %25, -1
  br i1 %26, label %27, label %33

27:                                               ; preds = %2
  br label %28

28:                                               ; preds = %27
  %29 = load ptr, ptr getelementptr inbounds nuw (%struct._zend_executor_globals, ptr @executor_globals, i32 0, i32 54), align 8, !tbaa !12
  %30 = icmp ne ptr %29, null
  call void @llvm.assume(i1 %30)
  store i32 1, ptr %11, align 4
  br label %131

31:                                               ; No predecessors!
  br label %32

32:                                               ; preds = %31
  br label %33

33:                                               ; preds = %32, %2
  %34 = load ptr, ptr %6, align 8, !tbaa !93
  %35 = call ptr @zend_hash_index_find(ptr noundef %34, i64 noundef 0)
  store ptr %35, ptr %7, align 8, !tbaa !9
  %36 = load ptr, ptr %6, align 8, !tbaa !93
  %37 = call ptr @zend_hash_index_find(ptr noundef %36, i64 noundef 1)
  store ptr %37, ptr %8, align 8, !tbaa !9
  %38 = load ptr, ptr %6, align 8, !tbaa !93
  %39 = call ptr @zend_hash_index_find(ptr noundef %38, i64 noundef 2)
  store ptr %39, ptr %9, align 8, !tbaa !9
  %40 = load ptr, ptr %7, align 8, !tbaa !9
  %41 = icmp ne ptr %40, null
  br i1 %41, label %42, label %63

42:                                               ; preds = %33
  %43 = load ptr, ptr %8, align 8, !tbaa !9
  %44 = icmp ne ptr %43, null
  br i1 %44, label %45, label %63

45:                                               ; preds = %42
  %46 = load ptr, ptr %9, align 8, !tbaa !9
  %47 = icmp ne ptr %46, null
  br i1 %47, label %48, label %63

48:                                               ; preds = %45
  %49 = load ptr, ptr %7, align 8, !tbaa !9
  %50 = call zeroext i8 @zval_get_type(ptr noundef %49)
  %51 = zext i8 %50 to i32
  %52 = icmp ne i32 %51, 4
  br i1 %52, label %63, label %53

53:                                               ; preds = %48
  %54 = load ptr, ptr %8, align 8, !tbaa !9
  %55 = call zeroext i8 @zval_get_type(ptr noundef %54)
  %56 = zext i8 %55 to i32
  %57 = icmp ne i32 %56, 7
  br i1 %57, label %63, label %58

58:                                               ; preds = %53
  %59 = load ptr, ptr %9, align 8, !tbaa !9
  %60 = call zeroext i8 @zval_get_type(ptr noundef %59)
  %61 = zext i8 %60 to i32
  %62 = icmp ne i32 %61, 7
  br i1 %62, label %63, label %71

63:                                               ; preds = %58, %53, %48, %45, %42, %33
  %64 = load ptr, ptr @spl_ce_UnexpectedValueException, align 8, !tbaa !67
  %65 = call ptr @zend_throw_exception(ptr noundef %64, ptr noundef @.str.12, i64 noundef 0)
  br label %66

66:                                               ; preds = %63
  %67 = load ptr, ptr getelementptr inbounds nuw (%struct._zend_executor_globals, ptr @executor_globals, i32 0, i32 54), align 8, !tbaa !12
  %68 = icmp ne ptr %67, null
  call void @llvm.assume(i1 %68)
  store i32 1, ptr %11, align 4
  br label %131

69:                                               ; No predecessors!
  br label %70

70:                                               ; preds = %69
  br label %71

71:                                               ; preds = %70, %58
  %72 = load ptr, ptr %7, align 8, !tbaa !9
  %73 = getelementptr inbounds nuw %struct._zval_struct, ptr %72, i32 0, i32 0
  %74 = load i64, ptr %73, align 8, !tbaa !11
  %75 = trunc i64 %74 to i32
  %76 = load ptr, ptr %5, align 8, !tbaa !45
  %77 = getelementptr inbounds nuw %struct._spl_dllist_object, ptr %76, i32 0, i32 3
  store i32 %75, ptr %77, align 4, !tbaa !73
  br label %78

78:                                               ; preds = %71
  call void @llvm.lifetime.start.p0(i64 8, ptr %12) #14
  %79 = load ptr, ptr %8, align 8, !tbaa !9
  %80 = getelementptr inbounds nuw %struct._zval_struct, ptr %79, i32 0, i32 0
  %81 = load ptr, ptr %80, align 8, !tbaa !11
  store ptr %81, ptr %12, align 8, !tbaa !93
  call void @llvm.lifetime.start.p0(i64 4, ptr %13) #14
  %82 = load ptr, ptr %12, align 8, !tbaa !93
  %83 = getelementptr inbounds nuw %struct._zend_array, ptr %82, i32 0, i32 4
  %84 = load i32, ptr %83, align 8, !tbaa !94
  store i32 %84, ptr %13, align 4, !tbaa !64
  call void @llvm.lifetime.start.p0(i64 8, ptr %14) #14
  %85 = load ptr, ptr %12, align 8, !tbaa !93
  %86 = getelementptr inbounds nuw %struct._zend_array, ptr %85, i32 0, i32 1
  %87 = load i32, ptr %86, align 8, !tbaa !11
  %88 = xor i32 %87, -1
  %89 = and i32 %88, 4
  %90 = zext i32 %89 to i64
  %91 = mul i64 %90, 4
  %92 = add i64 16, %91
  store i64 %92, ptr %14, align 8, !tbaa !68
  call void @llvm.lifetime.start.p0(i64 8, ptr %15) #14
  %93 = load ptr, ptr %12, align 8, !tbaa !93
  %94 = getelementptr inbounds nuw %struct._zend_array, ptr %93, i32 0, i32 3
  %95 = load ptr, ptr %94, align 8, !tbaa !11
  store ptr %95, ptr %15, align 8, !tbaa !9
  br label %96

96:                                               ; preds = %117, %78
  %97 = load i32, ptr %13, align 4, !tbaa !64
  %98 = icmp ugt i32 %97, 0
  br i1 %98, label %99, label %123

99:                                               ; preds = %96
  %100 = load ptr, ptr %15, align 8, !tbaa !9
  %101 = call zeroext i8 @zval_get_type(ptr noundef %100)
  %102 = zext i8 %101 to i32
  %103 = icmp eq i32 %102, 0
  %104 = xor i1 %103, true
  %105 = xor i1 %104, true
  %106 = zext i1 %105 to i32
  %107 = sext i32 %106 to i64
  %108 = call i64 @llvm.expect.i64(i64 %107, i64 0)
  %109 = icmp ne i64 %108, 0
  br i1 %109, label %110, label %111

110:                                              ; preds = %99
  br label %117

111:                                              ; preds = %99
  %112 = load ptr, ptr %15, align 8, !tbaa !9
  store ptr %112, ptr %10, align 8, !tbaa !9
  %113 = load ptr, ptr %5, align 8, !tbaa !45
  %114 = getelementptr inbounds nuw %struct._spl_dllist_object, ptr %113, i32 0, i32 0
  %115 = load ptr, ptr %114, align 8, !tbaa !47
  %116 = load ptr, ptr %10, align 8, !tbaa !9
  call void @spl_ptr_llist_push(ptr noundef %115, ptr noundef %116)
  br label %117

117:                                              ; preds = %111, %110
  %118 = load ptr, ptr %15, align 8, !tbaa !9
  %119 = load i64, ptr %14, align 8, !tbaa !68
  %120 = getelementptr inbounds nuw i8, ptr %118, i64 %119
  store ptr %120, ptr %15, align 8, !tbaa !9
  %121 = load i32, ptr %13, align 4, !tbaa !64
  %122 = add i32 %121, -1
  store i32 %122, ptr %13, align 4, !tbaa !64
  br label %96

123:                                              ; preds = %96
  call void @llvm.lifetime.end.p0(i64 8, ptr %15) #14
  call void @llvm.lifetime.end.p0(i64 8, ptr %14) #14
  call void @llvm.lifetime.end.p0(i64 4, ptr %13) #14
  call void @llvm.lifetime.end.p0(i64 8, ptr %12) #14
  br label %124

124:                                              ; preds = %123
  br label %125

125:                                              ; preds = %124
  %126 = load ptr, ptr %5, align 8, !tbaa !45
  %127 = getelementptr inbounds nuw %struct._spl_dllist_object, ptr %126, i32 0, i32 10
  %128 = load ptr, ptr %9, align 8, !tbaa !9
  %129 = getelementptr inbounds nuw %struct._zval_struct, ptr %128, i32 0, i32 0
  %130 = load ptr, ptr %129, align 8, !tbaa !11
  call void @object_properties_load(ptr noundef %127, ptr noundef %130)
  store i32 0, ptr %11, align 4
  br label %131

131:                                              ; preds = %125, %66, %28
  call void @llvm.lifetime.end.p0(i64 8, ptr %10) #14
  call void @llvm.lifetime.end.p0(i64 8, ptr %9) #14
  call void @llvm.lifetime.end.p0(i64 8, ptr %8) #14
  call void @llvm.lifetime.end.p0(i64 8, ptr %7) #14
  call void @llvm.lifetime.end.p0(i64 8, ptr %6) #14
  call void @llvm.lifetime.end.p0(i64 8, ptr %5) #14
  %132 = load i32, ptr %11, align 4
  switch i32 %132, label %134 [
    i32 0, label %133
    i32 1, label %133
  ]

133:                                              ; preds = %131, %131
  ret void

134:                                              ; preds = %131
  unreachable
}