; Function Attrs: nounwind uwtable
define hidden void @zim_SplDoublyLinkedList___unserialize(ptr noundef readonly captures(none) %0, ptr readnone captures(none) %1) #0 {
  %3 = alloca ptr, align 8
  %4 = getelementptr inbounds nuw i8, ptr %0, i64 32
  %5 = load ptr, ptr %4, align 8, !tbaa !4
  %6 = getelementptr inbounds i8, ptr %5, i64 -72
  call void @llvm.lifetime.start.p0(i64 8, ptr nonnull %3) #13
  %7 = getelementptr inbounds nuw i8, ptr %0, i64 44
  %8 = load i32, ptr %7, align 4, !tbaa !4
  %9 = call i32 (i32, ptr, ...) @zend_parse_parameters(i32 noundef %8, ptr noundef nonnull @.str.11, ptr noundef nonnull %3) #13
  %10 = icmp eq i32 %9, -1
  br i1 %10, label %11, label %14

11:                                               ; preds = %2
  %12 = load ptr, ptr getelementptr inbounds nuw (i8, ptr @executor_globals, i64 960), align 8, !tbaa !7
  %13 = icmp ne ptr %12, null
  call void @llvm.assume(i1 %13)
  br label %84

14:                                               ; preds = %2
  %15 = load ptr, ptr %3, align 8, !tbaa !86
  %16 = call ptr @zend_hash_index_find(ptr noundef %15, i64 noundef 0) #13
  %17 = load ptr, ptr %3, align 8, !tbaa !86
  %18 = call ptr @zend_hash_index_find(ptr noundef %17, i64 noundef 1) #13
  %19 = load ptr, ptr %3, align 8, !tbaa !86
  %20 = call ptr @zend_hash_index_find(ptr noundef %19, i64 noundef 2) #13
  %21 = icmp ne ptr %16, null
  %22 = icmp ne ptr %18, null
  %or.cond = select i1 %21, i1 %22, i1 false
  %23 = icmp ne ptr %20, null
  %or.cond3 = select i1 %or.cond, i1 %23, i1 false
  br i1 %or.cond3, label %24, label %33

24:                                               ; preds = %14
  %25 = getelementptr inbounds nuw i8, ptr %16, i64 8
  %26 = load i8, ptr %25, align 8, !tbaa !4
  %.not = icmp eq i8 %26, 4
  br i1 %.not, label %27, label %33

27:                                               ; preds = %24
  %28 = getelementptr inbounds nuw i8, ptr %18, i64 8
  %29 = load i8, ptr %28, align 8, !tbaa !4
  %.not30 = icmp eq i8 %29, 7
  br i1 %.not30, label %30, label %33

30:                                               ; preds = %27
  %31 = getelementptr inbounds nuw i8, ptr %20, i64 8
  %32 = load i8, ptr %31, align 8, !tbaa !4
  %.not31 = icmp eq i8 %32, 7
  br i1 %.not31, label %38, label %33

33:                                               ; preds = %30, %27, %24, %14
  %34 = load ptr, ptr @spl_ce_UnexpectedValueException, align 8, !tbaa !60
  %35 = call ptr @zend_throw_exception(ptr noundef %34, ptr noundef nonnull @.str.12, i64 noundef 0) #13
  %36 = load ptr, ptr getelementptr inbounds nuw (i8, ptr @executor_globals, i64 960), align 8, !tbaa !7
  %37 = icmp ne ptr %36, null
  call void @llvm.assume(i1 %37)
  br label %84

38:                                               ; preds = %30
  %39 = load i64, ptr %16, align 8, !tbaa !4
  %40 = trunc i64 %39 to i32
  %41 = getelementptr inbounds i8, ptr %5, i64 -52
  store i32 %40, ptr %41, align 4, !tbaa !66
  %42 = load ptr, ptr %18, align 8, !tbaa !4
  %43 = getelementptr inbounds nuw i8, ptr %42, i64 24
  %44 = load i32, ptr %43, align 8, !tbaa !87
  %.not3233 = icmp eq i32 %44, 0
  br i1 %.not3233, label %._crit_edge, label %.lr.ph

.lr.ph:                                           ; preds = %38
  %45 = getelementptr inbounds nuw i8, ptr %42, i64 16
  %46 = load ptr, ptr %45, align 8, !tbaa !4
  %47 = getelementptr inbounds nuw i8, ptr %42, i64 8
  %48 = load i32, ptr %47, align 8, !tbaa !4
  %49 = shl i32 %48, 2
  %50 = and i32 %49, 16
  %51 = xor i32 %50, 16
  %52 = zext nneg i32 %51 to i64
  br label %53

53:                                               ; preds = %.lr.ph, %79
  %.035 = phi ptr [ %46, %.lr.ph ], [ %81, %79 ]
  %.02634 = phi i32 [ %44, %.lr.ph ], [ %82, %79 ]
  %54 = getelementptr inbounds nuw i8, ptr %.035, i64 8
  %55 = load i8, ptr %54, align 8, !tbaa !4
  %56 = icmp eq i8 %55, 0
  br i1 %56, label %79, label %57, !prof !61

57:                                               ; preds = %53
  %58 = load ptr, ptr %6, align 8, !tbaa !43
  %59 = call noalias ptr @_emalloc_32() #13
  %60 = getelementptr inbounds nuw i8, ptr %58, i64 8
  %61 = load ptr, ptr %60, align 8, !tbaa !51
  store ptr %61, ptr %59, align 8, !tbaa !53
  %62 = getelementptr inbounds nuw i8, ptr %59, i64 8
  store ptr null, ptr %62, align 8, !tbaa !55
  %63 = getelementptr inbounds nuw i8, ptr %59, i64 16
  %64 = load ptr, ptr %.035, align 8, !tbaa !4
  %65 = load i32, ptr %54, align 8, !tbaa !4
  store ptr %64, ptr %63, align 8, !tbaa !4
  %66 = getelementptr inbounds nuw i8, ptr %59, i64 24
  store i32 %65, ptr %66, align 8, !tbaa !4
  %67 = and i32 %65, 65280
  %.not.i = icmp eq i32 %67, 0
  br i1 %.not.i, label %71, label %68

68:                                               ; preds = %57
  %69 = load i32, ptr %64, align 4, !tbaa !56
  %70 = add i32 %69, 1
  store i32 %70, ptr %64, align 4, !tbaa !56
  br label %71

71:                                               ; preds = %68, %57
  %72 = getelementptr inbounds nuw i8, ptr %59, i64 28
  store i32 1, ptr %72, align 4, !tbaa !4
  %.not21.i = icmp eq ptr %61, null
  br i1 %.not21.i, label %75, label %73

73:                                               ; preds = %71
  %74 = getelementptr inbounds nuw i8, ptr %61, i64 8
  store ptr %59, ptr %74, align 8, !tbaa !55
  br label %spl_ptr_llist_push.exit

75:                                               ; preds = %71
  store ptr %59, ptr %58, align 8, !tbaa !57
  br label %spl_ptr_llist_push.exit

spl_ptr_llist_push.exit:                          ; preds = %73, %75
  store ptr %59, ptr %60, align 8, !tbaa !51
  %76 = getelementptr inbounds nuw i8, ptr %58, i64 16
  %77 = load i32, ptr %76, align 8, !tbaa !58
  %78 = add nsw i32 %77, 1
  store i32 %78, ptr %76, align 8, !tbaa !58
  br label %79

79:                                               ; preds = %53, %spl_ptr_llist_push.exit
  %80 = getelementptr inbounds nuw i8, ptr %.035, i64 %52
  %81 = getelementptr inbounds nuw i8, ptr %80, i64 16
  %82 = add i32 %.02634, -1
  %.not32 = icmp eq i32 %82, 0
  br i1 %.not32, label %._crit_edge, label %53

._crit_edge:                                      ; preds = %79, %38
  %83 = load ptr, ptr %20, align 8, !tbaa !4
  call void @object_properties_load(ptr noundef nonnull %5, ptr noundef %83) #13
  br label %84

84:                                               ; preds = %._crit_edge, %33, %11
  call void @llvm.lifetime.end.p0(i64 8, ptr nonnull %3) #13
  ret void
}